target datalayout = "e-m:e-p270:32:32-p271:32:32-p272:64:64-i64:64-i128:128-f80:128-n8:16:32:64-S128"
target triple = "x86_64-pc-linux-gnu"

%struct.Agobj_s = type { %struct.Agtag_s, ptr }
%struct.Agtag_s = type { i32, i64 }
%struct.Agraphinfo_t = type { %struct.Agrec_s, ptr, ptr, %struct.boxf, [4 x %struct.pointf_s], i8, i8, i8, i8, i32, double, double, i16, ptr, ptr, ptr, ptr, i32, ptr, ptr, ptr, ptr, i16, i16, i32, ptr, ptr, ptr, ptr, ptr, i32, ptr, ptr, %struct.nlist_t, ptr, ptr, i32, i32, i8, i8, i32, i32, i32, ptr, ptr, ptr, ptr, i8, i8, i8, i8, i8 }
%struct.Agrec_s = type { ptr, ptr }
%struct.boxf = type { %struct.pointf_s, %struct.pointf_s }
%struct.pointf_s = type { double, double }
%struct.nlist_t = type { ptr, i64 }

@.str.5 = private unnamed_addr constant [13 x i8] c"Agraphinfo_t\00", align 1

; Function Attrs: nounwind uwtable
define internal void @dot_init_subg(ptr noundef %0, ptr noundef %1) #0 {
  %3 = alloca ptr, align 8
  %4 = alloca ptr, align 8
  %5 = alloca ptr, align 8
  store ptr %0, ptr %3, align 8, !tbaa !3
  store ptr %1, ptr %4, align 8, !tbaa !3
  call void @llvm.lifetime.start.p0(i64 8, ptr %5) #12
  %6 = load ptr, ptr %3, align 8, !tbaa !3
  %7 = load ptr, ptr %3, align 8, !tbaa !3
  %8 = call ptr @agroot(ptr noundef %7)
  %9 = icmp ne ptr %6, %8
  br i1 %9, label %10, label %13

10:                                               ; preds = %2
  %11 = load ptr, ptr %3, align 8, !tbaa !3
  %12 = call ptr @agbindrec(ptr noundef %11, ptr noundef @.str.5, i32 noundef 400, i32 noundef 1)
  br label %13

13:                                               ; preds = %10, %2
  %14 = load ptr, ptr %3, align 8, !tbaa !3
  %15 = load ptr, ptr %4, align 8, !tbaa !3
  %16 = icmp eq ptr %14, %15
  br i1 %16, label %17, label %24

17:                                               ; preds = %13
  %18 = load ptr, ptr %4, align 8, !tbaa !3
  %19 = load ptr, ptr %3, align 8, !tbaa !3
  %20 = call ptr @agroot(ptr noundef %19)
  %21 = getelementptr inbounds nuw %struct.Agobj_s, ptr %20, i32 0, i32 1
  %22 = load ptr, ptr %21, align 8, !tbaa !16
  %23 = getelementptr inbounds nuw %struct.Agraphinfo_t, ptr %22, i32 0, i32 26
  store ptr %18, ptr %23, align 8, !tbaa !121
  br label %24

24:                                               ; preds = %17, %13
  %25 = load ptr, ptr %3, align 8, !tbaa !3
  %26 = call ptr @agfstsubg(ptr noundef %25)
  store ptr %26, ptr %5, align 8, !tbaa !3
  br label %27

27:                                               ; preds = %33, %24
  %28 = load ptr, ptr %5, align 8, !tbaa !3
  %29 = icmp ne ptr %28, null
  br i1 %29, label %30, label %36

30:                                               ; preds = %27
  %31 = load ptr, ptr %5, align 8, !tbaa !3
  %32 = load ptr, ptr %4, align 8, !tbaa !3
  call void @dot_init_subg(ptr noundef %31, ptr noundef %32)
  br label %33

33:                                               ; preds = %30
  %34 = load ptr, ptr %5, align 8, !tbaa !3
  %35 = call ptr @agnxtsubg(ptr noundef %34)
  store ptr %35, ptr %5, align 8, !tbaa !3
  br label %27, !llvm.loop !146

36:                                               ; preds = %27
  call void @llvm.lifetime.end.p0(i64 8, ptr %5) #12
  ret void
}