; Function Attrs: nounwind uwtable
define internal fastcc void @dot_init_subg(ptr noundef %0, ptr noundef %1) unnamed_addr #0 {
  %3 = tail call ptr @agroot(ptr noundef %0) #15
  %.not = icmp eq ptr %0, %3
  br i1 %.not, label %6, label %4

4:                                                ; preds = %2
  %5 = tail call ptr @agbindrec(ptr noundef %0, ptr noundef nonnull @.str.5, i32 noundef 400, i32 noundef 1) #15
  br label %6

6:                                                ; preds = %4, %2
  %7 = icmp eq ptr %0, %1
  br i1 %7, label %8, label %13

8:                                                ; preds = %6
  %9 = tail call ptr @agroot(ptr noundef %0) #15
  %10 = getelementptr inbounds nuw i8, ptr %9, i64 16
  %11 = load ptr, ptr %10, align 8, !tbaa !3
  %12 = getelementptr inbounds nuw i8, ptr %11, i64 248
  store ptr %1, ptr %12, align 8, !tbaa !138
  br label %13

13:                                               ; preds = %8, %6
  %14 = tail call ptr @agfstsubg(ptr noundef %0) #15
  %.not1415 = icmp eq ptr %14, null
  br i1 %.not1415, label %._crit_edge, label %.lr.ph

.lr.ph:                                           ; preds = %13, %.lr.ph
  %.016 = phi ptr [ %15, %.lr.ph ], [ %14, %13 ]
  tail call fastcc void @dot_init_subg(ptr noundef nonnull %.016, ptr noundef %1)
  %15 = tail call ptr @agnxtsubg(ptr noundef nonnull %.016) #15
  %.not14 = icmp eq ptr %15, null
  br i1 %.not14, label %._crit_edge, label %.lr.ph, !llvm.loop !147

._crit_edge:                                      ; preds = %.lr.ph, %13
  ret void
}